target datalayout = "e-m:e-p270:32:32-p271:32:32-p272:64:64-i64:64-i128:128-f80:128-n8:16:32:64-S128"
target triple = "x86_64-pc-linux-gnu"

%struct._stritem = type { ptr, ptr, ptr, i32, i32, i32, i16, i16, i8, i8, [0 x %union.anon] }
%union.anon = type { i64 }
%struct.item_hdr = type { i32, i32, i16 }

; Function Attrs: nounwind uwtable
define dso_local void @storage_delete(ptr noundef %0, ptr noundef %1) #0 {
  %3 = alloca ptr, align 8
  %4 = alloca ptr, align 8
  %5 = alloca ptr, align 8
  store ptr %0, ptr %3, align 8, !tbaa !4
  store ptr %1, ptr %4, align 8, !tbaa !8
  %6 = load ptr, ptr %4, align 8, !tbaa !8
  %7 = getelementptr inbounds nuw %struct._stritem, ptr %6, i32 0, i32 7
  %8 = load i16, ptr %7, align 2, !tbaa !11
  %9 = zext i16 %8 to i32
  %10 = and i32 %9, 128
  %11 = icmp ne i32 %10, 0
  br i1 %11, label %12, label %76

12:                                               ; preds = %2
  call void @llvm.lifetime.start.p0(i64 8, ptr %5) #13
  %13 = load ptr, ptr %4, align 8, !tbaa !8
  %14 = getelementptr inbounds nuw %struct._stritem, ptr %13, i32 0, i32 10
  %15 = load ptr, ptr %4, align 8, !tbaa !8
  %16 = getelementptr inbounds nuw %struct._stritem, ptr %15, i32 0, i32 9
  %17 = load i8, ptr %16, align 1, !tbaa !10
  %18 = zext i8 %17 to i32
  %19 = sext i32 %18 to i64
  %20 = getelementptr inbounds i8, ptr %14, i64 %19
  %21 = getelementptr inbounds i8, ptr %20, i64 1
  %22 = load ptr, ptr %4, align 8, !tbaa !8
  %23 = getelementptr inbounds nuw %struct._stritem, ptr %22, i32 0, i32 7
  %24 = load i16, ptr %23, align 2, !tbaa !11
  %25 = zext i16 %24 to i32
  %26 = and i32 %25, 256
  %27 = icmp ne i32 %26, 0
  %28 = select i1 %27, i64 4, i64 0
  %29 = getelementptr inbounds nuw i8, ptr %21, i64 %28
  %30 = load ptr, ptr %4, align 8, !tbaa !8
  %31 = getelementptr inbounds nuw %struct._stritem, ptr %30, i32 0, i32 7
  %32 = load i16, ptr %31, align 2, !tbaa !11
  %33 = zext i16 %32 to i32
  %34 = and i32 %33, 2
  %35 = icmp ne i32 %34, 0
  %36 = select i1 %35, i64 8, i64 0
  %37 = getelementptr inbounds nuw i8, ptr %29, i64 %36
  store ptr %37, ptr %5, align 8, !tbaa !4
  %38 = load ptr, ptr %3, align 8, !tbaa !4
  %39 = load ptr, ptr %5, align 8, !tbaa !4
  %40 = getelementptr inbounds nuw %struct.item_hdr, ptr %39, i32 0, i32 2
  %41 = load i16, ptr %40, align 4, !tbaa !13
  %42 = zext i16 %41 to i32
  %43 = load ptr, ptr %5, align 8, !tbaa !4
  %44 = getelementptr inbounds nuw %struct.item_hdr, ptr %43, i32 0, i32 0
  %45 = load i32, ptr %44, align 4, !tbaa !16
  %46 = zext i32 %45 to i64
  %47 = load ptr, ptr %4, align 8, !tbaa !8
  %48 = getelementptr inbounds nuw %struct._stritem, ptr %47, i32 0, i32 9
  %49 = load i8, ptr %48, align 1, !tbaa !10
  %50 = zext i8 %49 to i64
  %51 = add i64 48, %50
  %52 = add i64 %51, 1
  %53 = load ptr, ptr %4, align 8, !tbaa !8
  %54 = getelementptr inbounds nuw %struct._stritem, ptr %53, i32 0, i32 5
  %55 = load i32, ptr %54, align 8, !tbaa !17
  %56 = sext i32 %55 to i64
  %57 = add i64 %52, %56
  %58 = load ptr, ptr %4, align 8, !tbaa !8
  %59 = getelementptr inbounds nuw %struct._stritem, ptr %58, i32 0, i32 7
  %60 = load i16, ptr %59, align 2, !tbaa !11
  %61 = zext i16 %60 to i32
  %62 = and i32 %61, 256
  %63 = icmp ne i32 %62, 0
  %64 = select i1 %63, i64 4, i64 0
  %65 = add i64 %57, %64
  %66 = load ptr, ptr %4, align 8, !tbaa !8
  %67 = getelementptr inbounds nuw %struct._stritem, ptr %66, i32 0, i32 7
  %68 = load i16, ptr %67, align 2, !tbaa !11
  %69 = zext i16 %68 to i32
  %70 = and i32 %69, 2
  %71 = icmp ne i32 %70, 0
  %72 = select i1 %71, i64 8, i64 0
  %73 = add i64 %65, %72
  %74 = trunc i64 %73 to i32
  %75 = call i32 @extstore_delete(ptr noundef %38, i32 noundef %42, i64 noundef %46, i32 noundef 1, i32 noundef %74)
  call void @llvm.lifetime.end.p0(i64 8, ptr %5) #13
  br label %76

76:                                               ; preds = %12, %2
  ret void
}