; Function Attrs: nounwind uwtable
define dso_local void @storage_delete(ptr noundef %0, ptr noundef readonly captures(none) %1) local_unnamed_addr #0 {
  %3 = getelementptr inbounds nuw i8, ptr %1, i64 38
  %4 = load i16, ptr %3, align 2, !tbaa !7
  %5 = zext i16 %4 to i32
  %6 = and i32 %5, 128
  %.not = icmp eq i32 %6, 0
  br i1 %.not, label %35, label %7

7:                                                ; preds = %2
  %8 = getelementptr inbounds nuw i8, ptr %1, i64 48
  %9 = getelementptr inbounds nuw i8, ptr %1, i64 41
  %10 = load i8, ptr %9, align 1, !tbaa !4
  %11 = zext i8 %10 to i64
  %12 = getelementptr inbounds nuw i8, ptr %8, i64 %11
  %13 = getelementptr inbounds nuw i8, ptr %12, i64 1
  %14 = lshr i32 %5, 6
  %15 = and i32 %14, 4
  %16 = zext nneg i32 %15 to i64
  %17 = getelementptr inbounds nuw i8, ptr %13, i64 %16
  %18 = shl nuw nsw i32 %5, 2
  %19 = and i32 %18, 8
  %20 = zext nneg i32 %19 to i64
  %21 = getelementptr inbounds nuw i8, ptr %17, i64 %20
  %22 = getelementptr inbounds nuw i8, ptr %21, i64 8
  %23 = load i16, ptr %22, align 4, !tbaa !9
  %24 = zext i16 %23 to i32
  %25 = load i32, ptr %21, align 4, !tbaa !12
  %26 = zext i32 %25 to i64
  %27 = zext i8 %10 to i32
  %28 = getelementptr inbounds nuw i8, ptr %1, i64 32
  %29 = load i32, ptr %28, align 8, !tbaa !13
  %30 = or disjoint i32 %15, %19
  %31 = or disjoint i32 %30, 49
  %32 = add nuw nsw i32 %31, %27
  %33 = add i32 %32, %29
  %34 = tail call i32 @extstore_delete(ptr noundef %0, i32 noundef %24, i64 noundef %26, i32 noundef 1, i32 noundef %33) #21
  br label %35

35:                                               ; preds = %7, %2
  ret void
}